target datalayout = "e-m:e-p270:32:32-p271:32:32-p272:64:64-i64:64-i128:128-f80:128-n8:16:32:64-S128"
target triple = "x86_64-pc-linux-gnu"

@H5FD_init_g = external global i8, align 1
@H5_libterm_g = external global i8, align 1
@.str = private unnamed_addr constant [106 x i8] c"generated/home/dtcxzyw/WorkSpace/Projects/compilers/llvm-opt-benchmark/bench/hdf5/hdf5/src/H5FDsplitter.c\00", align 1
@H5E_VFL_g = external global i64, align 8
@H5E_CANTSET_g = external global i64, align 8
@.str.36 = private unnamed_addr constant [4 x i8] c"_wo\00", align 1
@__func__.H5FD__splitter_get_default_wo_path = private unnamed_addr constant [35 x i8] c"H5FD__splitter_get_default_wo_path\00", align 1
@.str.37 = private unnamed_addr constant [28 x i8] c"filename exceeds max length\00", align 1
@.str.38 = private unnamed_addr constant [4 x i8] c".h5\00", align 1
@.str.39 = private unnamed_addr constant [9 x i8] c"%.*s%s%s\00", align 1
@.str.40 = private unnamed_addr constant [5 x i8] c"%s%s\00", align 1

; Function Attrs: nounwind uwtable
define internal i32 @H5FD__splitter_get_default_wo_path(ptr noundef %0, i64 noundef %1, ptr noundef %2) #0 {
  %4 = alloca ptr, align 8
  %5 = alloca i64, align 8
  %6 = alloca ptr, align 8
  %7 = alloca ptr, align 8
  %8 = alloca i64, align 8
  %9 = alloca ptr, align 8
  %10 = alloca i32, align 4
  %11 = alloca i8, align 1
  %12 = alloca i64, align 8
  %13 = alloca i64, align 8
  store ptr %0, ptr %4, align 8, !tbaa !46
  store i64 %1, ptr %5, align 8, !tbaa !11
  store ptr %2, ptr %6, align 8, !tbaa !46
  call void @llvm.lifetime.start.p0(i64 8, ptr %7) #10
  store ptr @.str.36, ptr %7, align 8, !tbaa !46
  call void @llvm.lifetime.start.p0(i64 8, ptr %8) #10
  store i64 0, ptr %8, align 8, !tbaa !11
  call void @llvm.lifetime.start.p0(i64 8, ptr %9) #10
  store ptr null, ptr %9, align 8, !tbaa !46
  call void @llvm.lifetime.start.p0(i64 4, ptr %10) #10
  store i32 0, ptr %10, align 4, !tbaa !3
  call void @llvm.lifetime.start.p0(i64 1, ptr %11) #10
  store i8 0, ptr %11, align 1, !tbaa !7
  %14 = load i8, ptr @H5FD_init_g, align 1, !tbaa !7, !range !9, !noundef !10
  %15 = trunc i8 %14 to i1
  br i1 %15, label %20, label %16

16:                                               ; preds = %3
  %17 = load i8, ptr @H5_libterm_g, align 1, !tbaa !7, !range !9, !noundef !10
  %18 = trunc i8 %17 to i1
  %19 = xor i1 %18, true
  br label %20

20:                                               ; preds = %16, %3
  %21 = phi i1 [ true, %3 ], [ %19, %16 ]
  %22 = xor i1 %21, true
  %23 = xor i1 %22, true
  %24 = zext i1 %23 to i32
  %25 = sext i32 %24 to i64
  %26 = call i64 @llvm.expect.i64(i64 %25, i64 1)
  %27 = icmp ne i64 %26, 0
  br i1 %27, label %28, label %102

28:                                               ; preds = %20
  %29 = load ptr, ptr %6, align 8, !tbaa !46
  %30 = call i64 @strlen(ptr noundef %29) #12
  store i64 %30, ptr %8, align 8, !tbaa !11
  %31 = load i64, ptr %8, align 8, !tbaa !11
  %32 = load ptr, ptr %7, align 8, !tbaa !46
  %33 = call i64 @strlen(ptr noundef %32) #12
  %34 = sub i64 4096, %33
  %35 = sub i64 %34, 1
  %36 = icmp ugt i64 %31, %35
  br i1 %36, label %37, label %56

37:                                               ; preds = %28
  br label %38

38:                                               ; preds = %37
  br label %39

39:                                               ; preds = %38
  br label %40

40:                                               ; preds = %39
  %41 = load i64, ptr @H5E_VFL_g, align 8, !tbaa !11
  %42 = load i64, ptr @H5E_CANTSET_g, align 8, !tbaa !11
  %43 = call i32 (ptr, ptr, i32, i64, i64, ptr, ...) @H5E_printf_stack(ptr noundef @.str, ptr noundef @__func__.H5FD__splitter_get_default_wo_path, i32 noundef 507, i64 noundef %41, i64 noundef %42, ptr noundef @.str.37)
  br label %44

44:                                               ; preds = %40
  br label %45

45:                                               ; preds = %44
  store i8 1, ptr %11, align 1, !tbaa !7
  %46 = load i8, ptr %11, align 1, !tbaa !7, !range !9, !noundef !10
  %47 = trunc i8 %46 to i1
  %48 = zext i1 %47 to i8
  store i8 %48, ptr %11, align 1, !tbaa !7
  br label %49

49:                                               ; preds = %45
  br label %50

50:                                               ; preds = %49
  br label %51

51:                                               ; preds = %50
  store i32 -1, ptr %10, align 4, !tbaa !3
  br label %101

52:                                               ; No predecessors!
  br label %53

53:                                               ; preds = %52
  br label %54

54:                                               ; preds = %53
  br label %55

55:                                               ; preds = %54
  br label %56

56:                                               ; preds = %55, %28
  %57 = load ptr, ptr %6, align 8, !tbaa !46
  %58 = call ptr @strstr(ptr noundef %57, ptr noundef @.str.38) #12
  store ptr %58, ptr %9, align 8, !tbaa !46
  %59 = load ptr, ptr %9, align 8, !tbaa !46
  %60 = icmp ne ptr %59, null
  br i1 %60, label %61, label %74

61:                                               ; preds = %56
  call void @llvm.lifetime.start.p0(i64 8, ptr %12) #10
  %62 = load ptr, ptr %9, align 8, !tbaa !46
  %63 = load ptr, ptr %6, align 8, !tbaa !46
  %64 = ptrtoint ptr %62 to i64
  %65 = ptrtoint ptr %63 to i64
  %66 = sub i64 %64, %65
  store i64 %66, ptr %12, align 8, !tbaa !11
  %67 = load ptr, ptr %4, align 8, !tbaa !46
  %68 = load i64, ptr %5, align 8, !tbaa !11
  %69 = load i64, ptr %12, align 8, !tbaa !11
  %70 = trunc i64 %69 to i32
  %71 = load ptr, ptr %6, align 8, !tbaa !46
  %72 = load ptr, ptr %7, align 8, !tbaa !46
  %73 = call i32 (ptr, i64, ptr, ...) @snprintf(ptr noundef %67, i64 noundef %68, ptr noundef @.str.39, i32 noundef %70, ptr noundef %71, ptr noundef %72, ptr noundef @.str.38) #10
  call void @llvm.lifetime.end.p0(i64 8, ptr %12) #10
  br label %100

74:                                               ; preds = %56
  %75 = load ptr, ptr %6, align 8, !tbaa !46
  %76 = call ptr @strrchr(ptr noundef %75, i32 noundef 46) #12
  store ptr %76, ptr %9, align 8, !tbaa !46
  %77 = load ptr, ptr %9, align 8, !tbaa !46
  %78 = icmp ne ptr %77, null
  br i1 %78, label %79, label %93

79:                                               ; preds = %74
  call void @llvm.lifetime.start.p0(i64 8, ptr %13) #10
  %80 = load ptr, ptr %9, align 8, !tbaa !46
  %81 = load ptr, ptr %6, align 8, !tbaa !46
  %82 = ptrtoint ptr %80 to i64
  %83 = ptrtoint ptr %81 to i64
  %84 = sub i64 %82, %83
  store i64 %84, ptr %13, align 8, !tbaa !11
  %85 = load ptr, ptr %4, align 8, !tbaa !46
  %86 = load i64, ptr %5, align 8, !tbaa !11
  %87 = load i64, ptr %13, align 8, !tbaa !11
  %88 = trunc i64 %87 to i32
  %89 = load ptr, ptr %6, align 8, !tbaa !46
  %90 = load ptr, ptr %7, align 8, !tbaa !46
  %91 = load ptr, ptr %9, align 8, !tbaa !46
  %92 = call i32 (ptr, i64, ptr, ...) @snprintf(ptr noundef %85, i64 noundef %86, ptr noundef @.str.39, i32 noundef %88, ptr noundef %89, ptr noundef %90, ptr noundef %91) #10
  call void @llvm.lifetime.end.p0(i64 8, ptr %13) #10
  br label %99

93:                                               ; preds = %74
  %94 = load ptr, ptr %4, align 8, !tbaa !46
  %95 = load i64, ptr %5, align 8, !tbaa !11
  %96 = load ptr, ptr %6, align 8, !tbaa !46
  %97 = load ptr, ptr %7, align 8, !tbaa !46
  %98 = call i32 (ptr, i64, ptr, ...) @snprintf(ptr noundef %94, i64 noundef %95, ptr noundef @.str.40, ptr noundef %96, ptr noundef %97) #10
  br label %99

99:                                               ; preds = %93, %79
  br label %100

100:                                              ; preds = %99, %61
  br label %101

101:                                              ; preds = %100, %51
  br label %102

102:                                              ; preds = %101, %20
  %103 = load i32, ptr %10, align 4, !tbaa !3
  call void @llvm.lifetime.end.p0(i64 1, ptr %11) #10
  call void @llvm.lifetime.end.p0(i64 4, ptr %10) #10
  call void @llvm.lifetime.end.p0(i64 8, ptr %9) #10
  call void @llvm.lifetime.end.p0(i64 8, ptr %8) #10
  call void @llvm.lifetime.end.p0(i64 8, ptr %7) #10
  ret i32 %103
}