; Function Attrs: nounwind uwtable
define internal fastcc range(i32 -1, 1) i32 @H5FD__splitter_get_default_wo_path(ptr noundef nonnull writeonly captures(none) %0, ptr noundef %1) unnamed_addr #0 {
  %3 = load i8, ptr @H5FD_init_g, align 1, !tbaa !3, !range !7, !noundef !8
  %4 = trunc nuw i8 %3 to i1
  %5 = load i8, ptr @H5_libterm_g, align 1, !range !7
  %6 = trunc nuw i8 %5 to i1
  %7 = xor i1 %6, true
  %8 = select i1 %4, i1 true, i1 %7
  br i1 %8, label %9, label %34, !prof !9

9:                                                ; preds = %2
  %10 = tail call i64 @strlen(ptr noundef nonnull dereferenceable(1) %1) #14
  %11 = icmp ugt i64 %10, 4092
  br i1 %11, label %12, label %16

12:                                               ; preds = %9
  %13 = load i64, ptr @H5E_VFL_g, align 8, !tbaa !10
  %14 = load i64, ptr @H5E_CANTSET_g, align 8, !tbaa !10
  %15 = tail call i32 (ptr, ptr, i32, i64, i64, ptr, ...) @H5E_printf_stack(ptr noundef nonnull @.str, ptr noundef nonnull @__func__.H5FD__splitter_get_default_wo_path, i32 noundef 507, i64 noundef %13, i64 noundef %14, ptr noundef nonnull @.str.37) #12
  br label %34

16:                                               ; preds = %9
  %17 = tail call ptr @strstr(ptr noundef nonnull dereferenceable(1) %1, ptr noundef nonnull dereferenceable(1) @.str.38) #14
  %.not = icmp eq ptr %17, null
  br i1 %.not, label %24, label %18

18:                                               ; preds = %16
  %19 = ptrtoint ptr %17 to i64
  %20 = ptrtoint ptr %1 to i64
  %21 = sub i64 %19, %20
  %22 = trunc i64 %21 to i32
  %23 = tail call i32 (ptr, i64, ptr, ...) @snprintf(ptr noundef nonnull dereferenceable(1) %0, i64 noundef 4097, ptr noundef nonnull @.str.39, i32 noundef %22, ptr noundef nonnull %1, ptr noundef nonnull @.str.36, ptr noundef nonnull @.str.38) #12
  br label %34

24:                                               ; preds = %16
  %25 = tail call ptr @strrchr(ptr noundef nonnull dereferenceable(1) %1, i32 noundef 46) #14
  %.not29 = icmp eq ptr %25, null
  br i1 %.not29, label %32, label %26

26:                                               ; preds = %24
  %27 = ptrtoint ptr %25 to i64
  %28 = ptrtoint ptr %1 to i64
  %29 = sub i64 %27, %28
  %30 = trunc i64 %29 to i32
  %31 = tail call i32 (ptr, i64, ptr, ...) @snprintf(ptr noundef nonnull dereferenceable(1) %0, i64 noundef 4097, ptr noundef nonnull @.str.39, i32 noundef %30, ptr noundef nonnull %1, ptr noundef nonnull @.str.36, ptr noundef nonnull %25) #12
  br label %34

32:                                               ; preds = %24
  %33 = tail call i32 (ptr, i64, ptr, ...) @snprintf(ptr noundef nonnull dereferenceable(1) %0, i64 noundef 4097, ptr noundef nonnull @.str.40, ptr noundef nonnull %1, ptr noundef nonnull @.str.36) #12
  br label %34

34:                                               ; preds = %12, %26, %32, %18, %2
  %.0 = phi i32 [ -1, %12 ], [ 0, %18 ], [ 0, %26 ], [ 0, %32 ], [ 0, %2 ]
  ret i32 %.0
}